; Function Attrs: mustprogress nounwind willreturn uwtable
define void @phpdbg_set_prompt(ptr nocapture noundef readonly %0) local_unnamed_addr #13 {
  %2 = load ptr, ptr getelementptr inbounds (%struct._zend_phpdbg_globals, ptr @phpdbg_globals, i64 0, i32 43, i64 1), align 8
  %.not = icmp eq ptr %2, null
  br i1 %.not, label %4, label %3

3:                                                ; preds = %1
  tail call void @free(ptr noundef nonnull %2) #25
  store ptr null, ptr getelementptr inbounds (%struct._zend_phpdbg_globals, ptr @phpdbg_globals, i64 0, i32 43, i64 1), align 8
  br label %4

4:                                                ; preds = %3, %1
  %5 = load ptr, ptr getelementptr inbounds (%struct._zend_phpdbg_globals, ptr @phpdbg_globals, i64 0, i32 43), align 8
  %.not2 = icmp eq ptr %5, null
  br i1 %.not2, label %7, label %6

6:                                                ; preds = %4
  tail call void @free(ptr noundef nonnull %5) #25
  store ptr null, ptr getelementptr inbounds (%struct._zend_phpdbg_globals, ptr @phpdbg_globals, i64 0, i32 43), align 8
  br label %7

7:                                                ; preds = %6, %4
  %8 = tail call noalias ptr @strdup(ptr noundef %0) #25
  store ptr %8, ptr getelementptr inbounds (%struct._zend_phpdbg_globals, ptr @phpdbg_globals, i64 0, i32 43), align 8
  ret void
}